; Function Attrs: mustprogress nofree norecurse nosync nounwind memory(readwrite, inaccessiblemem: none) uwtable
define dso_local void @_ZN10btSoftBody18setSpringStiffnessEf(ptr nocapture noundef nonnull align 8 dereferenceable(2064) %this, float noundef %k) local_unnamed_addr #11 align 2 {
entry:
  %m_size.i = getelementptr inbounds i8, ptr %this, i64 996
  %0 = load i32, ptr %m_size.i, align 4
  %cmp4 = icmp sgt i32 %0, 0
  br i1 %cmp4, label %for.body.lr.ph, label %for.end

for.body.lr.ph:                                   ; preds = %entry
  %m_data.i = getelementptr inbounds i8, ptr %this, i64 1008
  br label %for.body

for.body:                                         ; preds = %for.body.lr.ph, %for.body
  %indvars.iv = phi i64 [ 0, %for.body.lr.ph ], [ %indvars.iv.next, %for.body ]
  %1 = load ptr, ptr %m_data.i, align 8
  %m_material = getelementptr inbounds %"struct.btSoftBody::Link", ptr %1, i64 %indvars.iv, i32 0, i32 1
  %2 = load ptr, ptr %m_material, align 8
  %m_kLST = getelementptr inbounds i8, ptr %2, i64 8
  store float %k, ptr %m_kLST, align 8
  %indvars.iv.next = add nuw nsw i64 %indvars.iv, 1
  %3 = load i32, ptr %m_size.i, align 4
  %4 = sext i32 %3 to i64
  %cmp = icmp slt i64 %indvars.iv.next, %4
  br i1 %cmp, label %for.body, label %for.end, !llvm.loop !420

for.end:                                          ; preds = %for.body, %entry
  %m_repulsionStiffness = getelementptr inbounds i8, ptr %this, i64 1824
  store float %k, ptr %m_repulsionStiffness, align 8
  ret void
}